; Function Attrs: mustprogress nounwind uwtable
define internal void @_ZL11dtorArrayTyIN5clang6interp8IntegralILj8ELb1EEEEvPNS1_5BlockEPSt4bytePKNS1_10DescriptorE(ptr nocapture readnone %0, ptr nocapture noundef %1, ptr nocapture readonly %2) #0 {
  %4 = getelementptr inbounds nuw i8, ptr %1, i64 24
  %5 = load i8, ptr %4, align 8
  %6 = trunc i8 %5 to i1
  br i1 %6, label %7, label %_ZNK5clang6interp10Descriptor11getNumElemsEv.exit

7:                                                ; preds = %3
  store i8 0, ptr %4, align 8
  %8 = getelementptr inbounds i8, ptr %1, i64 16
  %9 = load ptr, ptr %8, align 8
  %.not.i.i.i.i.i.i.i.i = icmp eq ptr %9, null
  br i1 %.not.i.i.i.i.i.i.i.i, label %_ZNK5clang6interp10Descriptor11getNumElemsEv.exit, label %10

10:                                               ; preds = %7
  %11 = getelementptr inbounds nuw i8, ptr %9, i64 8
  %12 = load atomic i64, ptr %11 acquire, align 8
  %13 = icmp eq i64 %12, 4294967297
  %14 = trunc i64 %12 to i32
  br i1 %13, label %15, label %20

15:                                               ; preds = %10
  store i32 0, ptr %11, align 8
  %16 = getelementptr inbounds nuw i8, ptr %9, i64 12
  store i32 0, ptr %16, align 4
  %17 = load ptr, ptr %9, align 8
  %18 = getelementptr inbounds i8, ptr %17, i64 16
  %19 = load ptr, ptr %18, align 8
  tail call void %19(ptr noundef nonnull align 8 dereferenceable(16) %9) #20
  br label %_ZNSt16_Sp_counted_baseILN9__gnu_cxx12_Lock_policyE2EE24_M_release_last_use_coldEv.exit.sink.split.i.i.i.i.i.i.i.i.i

20:                                               ; preds = %10
  %21 = load i8, ptr @__libc_single_threaded, align 1
  %.not.i.i.i.i.i.i.i.i.i = icmp eq i8 %21, 0
  br i1 %.not.i.i.i.i.i.i.i.i.i, label %24, label %22

22:                                               ; preds = %20
  %23 = add nsw i32 %14, -1
  store i32 %23, ptr %11, align 4
  br label %26

24:                                               ; preds = %20
  %25 = atomicrmw volatile add ptr %11, i32 -1 acq_rel, align 4
  br label %26

26:                                               ; preds = %24, %22
  %.0.i.i.i.i.i.i.i.i.i = phi i32 [ %14, %22 ], [ %25, %24 ]
  %27 = icmp eq i32 %.0.i.i.i.i.i.i.i.i.i, 1
  br i1 %27, label %28, label %_ZNK5clang6interp10Descriptor11getNumElemsEv.exit

28:                                               ; preds = %26
  %29 = load ptr, ptr %9, align 8
  %30 = getelementptr inbounds i8, ptr %29, i64 16
  %31 = load ptr, ptr %30, align 8
  tail call void %31(ptr noundef nonnull align 8 dereferenceable(16) %9) #20
  %32 = getelementptr inbounds nuw i8, ptr %9, i64 12
  %33 = load i8, ptr @__libc_single_threaded, align 1
  %.not.i.i.i.i.i.i.i.i.i.i.i = icmp eq i8 %33, 0
  br i1 %.not.i.i.i.i.i.i.i.i.i.i.i, label %37, label %34

34:                                               ; preds = %28
  %35 = load i32, ptr %32, align 4
  %36 = add nsw i32 %35, -1
  store i32 %36, ptr %32, align 4
  br label %39

37:                                               ; preds = %28
  %38 = atomicrmw volatile add ptr %32, i32 -1 acq_rel, align 4
  br label %39

39:                                               ; preds = %37, %34
  %.0.i.i.i.i.i.i.i.i.i.i.i = phi i32 [ %35, %34 ], [ %38, %37 ]
  %40 = icmp eq i32 %.0.i.i.i.i.i.i.i.i.i.i.i, 1
  br i1 %40, label %_ZNSt16_Sp_counted_baseILN9__gnu_cxx12_Lock_policyE2EE24_M_release_last_use_coldEv.exit.sink.split.i.i.i.i.i.i.i.i.i, label %_ZNK5clang6interp10Descriptor11getNumElemsEv.exit

_ZNSt16_Sp_counted_baseILN9__gnu_cxx12_Lock_policyE2EE24_M_release_last_use_coldEv.exit.sink.split.i.i.i.i.i.i.i.i.i: ; preds = %39, %15
  %41 = load ptr, ptr %9, align 8
  %42 = getelementptr inbounds i8, ptr %41, i64 24
  %43 = load ptr, ptr %42, align 8
  tail call void %43(ptr noundef nonnull align 8 dereferenceable(16) %9) #20
  br label %_ZNK5clang6interp10Descriptor11getNumElemsEv.exit

_ZNK5clang6interp10Descriptor11getNumElemsEv.exit: ; preds = %3, %7, %26, %39, %_ZNSt16_Sp_counted_baseILN9__gnu_cxx12_Lock_policyE2EE24_M_release_last_use_coldEv.exit.sink.split.i.i.i.i.i.i.i.i.i
  ret void
}